target datalayout = "e-m:e-p270:32:32-p271:32:32-p272:64:64-i64:64-i128:128-f80:128-n8:16:32:64-S128"
target triple = "x86_64-pc-linux-gnu"

%struct.nameData = type { [64 x i8] }
%struct.ReplicationSlot = type { i8, i8, i32, i8, i8, i32, i32, %struct.ReplicationSlotPersistentData, %struct.LWLock, %struct.ConditionVariable, i32, i64, i64, i64, i64, i64 }
%struct.ReplicationSlotPersistentData = type { %struct.nameData, i32, i32, i32, i32, i64, i32, i64, i64, i8, %struct.nameData, i8, i8 }
%struct.LWLock = type { i16, %struct.pg_atomic_uint32, %struct.proclist_head }
%struct.pg_atomic_uint32 = type { i32 }
%struct.proclist_head = type { i32, i32 }
%struct.ConditionVariable = type { i8, %struct.proclist_head }
%struct.LogicalDecodingContext = type { ptr, ptr, ptr, ptr, ptr, i8, %struct.OutputPluginCallbacks, %struct.OutputPluginOptions, ptr, ptr, ptr, ptr, ptr, ptr, ptr, i8, i8, i8, i8, i8, i64, i32, i8, i8 }
%struct.OutputPluginCallbacks = type { ptr, ptr, ptr, ptr, ptr, ptr, ptr, ptr, ptr, ptr, ptr, ptr, ptr, ptr, ptr, ptr, ptr, ptr, ptr, ptr, ptr }
%struct.OutputPluginOptions = type { i32, i8 }
%struct.XLogReaderState = type { %struct.XLogReaderRoutine, i64, ptr, i64, i64, i64, i64, i64, i64, i64, i64, ptr, ptr, i64, i8, ptr, ptr, ptr, ptr, ptr, i32, %struct.WALSegmentContext, %struct.WALOpenSegment, i32, i64, i32, i64, i32, i64, i32, ptr, i32, ptr, i8, i8 }
%struct.XLogReaderRoutine = type { ptr, ptr, ptr }
%struct.WALSegmentContext = type { [1024 x i8], i32 }
%struct.WALOpenSegment = type { i32, i64, i32 }

@.str.1 = private unnamed_addr constant [10 x i8] c"logical.c\00", align 1
@.str.15 = private unnamed_addr constant [65 x i8] c"searching for logical decoding starting point, starting at %X/%X\00", align 1
@__func__.DecodingContextFindStartpoint = private unnamed_addr constant [30 x i8] c"DecodingContextFindStartpoint\00", align 1
@.str.16 = private unnamed_addr constant [51 x i8] c"could not find logical decoding starting point: %s\00", align 1
@.str.17 = private unnamed_addr constant [47 x i8] c"could not find logical decoding starting point\00", align 1
@InterruptPending = external global i32, align 4

; Function Attrs: inlinehint nounwind uwtable
define internal i32 @tas(ptr noundef %0) #4 {
  %2 = alloca ptr, align 8
  %3 = alloca i8, align 1
  store ptr %0, ptr %2, align 8
  call void @llvm.lifetime.start.p0(i64 1, ptr %3) #10
  store i8 1, ptr %3, align 1
  %4 = load i8, ptr %3, align 1
  %5 = load ptr, ptr %2, align 8
  %6 = call i8 asm sideeffect "\09lock\09\09\09\0A\09xchgb\09$0,$1\09\0A", "=q,=*m,0,*m,~{memory},~{cc},~{dirflag},~{fpsr},~{flags}"(ptr elementtype(i8) %5, i8 %4, ptr elementtype(i8) %5) #10, !srcloc !9
  store i8 %6, ptr %3, align 1
  %7 = load i8, ptr %3, align 1
  %8 = zext i8 %7 to i32
  call void @llvm.lifetime.end.p0(i64 1, ptr %3) #10
  ret i32 %8
}

; Function Attrs: nounwind uwtable
define dso_local zeroext i1 @DecodingContextReady(ptr noundef %0) #0 {
  %2 = alloca ptr, align 8
  store ptr %0, ptr %2, align 8
  %3 = load ptr, ptr %2, align 8
  %4 = getelementptr inbounds nuw %struct.LogicalDecodingContext, ptr %3, i32 0, i32 4
  %5 = load ptr, ptr %4, align 8
  %6 = call i32 @SnapBuildCurrentState(ptr noundef %5)
  %7 = icmp eq i32 %6, 2
  ret i1 %7
}

; Function Attrs: nounwind uwtable
define dso_local void @DecodingContextFindStartpoint(ptr noundef %0) #0 {
  %2 = alloca ptr, align 8
  %3 = alloca ptr, align 8
  %4 = alloca i32, align 4
  %5 = alloca ptr, align 8
  %6 = alloca ptr, align 8
  %7 = alloca i32, align 4
  store ptr %0, ptr %2, align 8
  call void @llvm.lifetime.start.p0(i64 8, ptr %3) #10
  %8 = load ptr, ptr %2, align 8
  %9 = getelementptr inbounds nuw %struct.LogicalDecodingContext, ptr %8, i32 0, i32 1
  %10 = load ptr, ptr %9, align 8
  store ptr %10, ptr %3, align 8
  %11 = load ptr, ptr %2, align 8
  %12 = getelementptr inbounds nuw %struct.LogicalDecodingContext, ptr %11, i32 0, i32 2
  %13 = load ptr, ptr %12, align 8
  %14 = load ptr, ptr %3, align 8
  %15 = getelementptr inbounds nuw %struct.ReplicationSlot, ptr %14, i32 0, i32 7
  %16 = getelementptr inbounds nuw %struct.ReplicationSlotPersistentData, ptr %15, i32 0, i32 5
  %17 = load i64, ptr %16, align 8
  call void @XLogBeginRead(ptr noundef %13, i64 noundef %17)
  br label %18

18:                                               ; preds = %1
  br i1 false, label %19, label %21

19:                                               ; preds = %18
  %20 = call zeroext i1 @errstart_cold(i32 noundef 14, ptr noundef null) #9
  br i1 %20, label %23, label %39

21:                                               ; preds = %18
  %22 = call zeroext i1 @errstart(i32 noundef 14, ptr noundef null)
  br i1 %22, label %23, label %39

23:                                               ; preds = %21, %19
  br label %24

24:                                               ; preds = %23
  br label %25

25:                                               ; preds = %24
  br label %26

26:                                               ; preds = %25
  store i32 1, ptr %4, align 4
  %27 = load ptr, ptr %3, align 8
  %28 = getelementptr inbounds nuw %struct.ReplicationSlot, ptr %27, i32 0, i32 7
  %29 = getelementptr inbounds nuw %struct.ReplicationSlotPersistentData, ptr %28, i32 0, i32 5
  %30 = load i64, ptr %29, align 8
  %31 = lshr i64 %30, 32
  %32 = trunc i64 %31 to i32
  %33 = load ptr, ptr %3, align 8
  %34 = getelementptr inbounds nuw %struct.ReplicationSlot, ptr %33, i32 0, i32 7
  %35 = getelementptr inbounds nuw %struct.ReplicationSlotPersistentData, ptr %34, i32 0, i32 5
  %36 = load i64, ptr %35, align 8
  %37 = trunc i64 %36 to i32
  %38 = call i32 (ptr, ...) @errmsg_internal(ptr noundef @.str.15, i32 noundef %32, i32 noundef %37)
  call void @errfinish(ptr noundef @.str.1, i32 noundef 639, ptr noundef @__func__.DecodingContextFindStartpoint)
  br label %39

39:                                               ; preds = %26, %21, %19
  br label %40

40:                                               ; preds = %39
  br label %41

41:                                               ; preds = %40
  br label %42

42:                                               ; preds = %97, %41
  call void @llvm.lifetime.start.p0(i64 8, ptr %5) #10
  call void @llvm.lifetime.start.p0(i64 8, ptr %6) #10
  store ptr null, ptr %6, align 8
  %43 = load ptr, ptr %2, align 8
  %44 = getelementptr inbounds nuw %struct.LogicalDecodingContext, ptr %43, i32 0, i32 2
  %45 = load ptr, ptr %44, align 8
  %46 = call ptr @XLogReadRecord(ptr noundef %45, ptr noundef %6)
  store ptr %46, ptr %5, align 8
  %47 = load ptr, ptr %6, align 8
  %48 = icmp ne ptr %47, null
  br i1 %48, label %49, label %61

49:                                               ; preds = %42
  br label %50

50:                                               ; preds = %49
  br i1 true, label %51, label %53

51:                                               ; preds = %50
  %52 = call zeroext i1 @errstart_cold(i32 noundef 21, ptr noundef null) #9
  br i1 %52, label %55, label %58

53:                                               ; preds = %50
  %54 = call zeroext i1 @errstart(i32 noundef 21, ptr noundef null)
  br i1 %54, label %55, label %58

55:                                               ; preds = %53, %51
  %56 = load ptr, ptr %6, align 8
  %57 = call i32 (ptr, ...) @errmsg_internal(ptr noundef @.str.16, ptr noundef %56)
  call void @errfinish(ptr noundef @.str.1, i32 noundef 650, ptr noundef @__func__.DecodingContextFindStartpoint)
  br label %58

58:                                               ; preds = %55, %53, %51
  unreachable

59:                                               ; No predecessors!
  br label %60

60:                                               ; preds = %59
  br label %61

61:                                               ; preds = %60, %42
  %62 = load ptr, ptr %5, align 8
  %63 = icmp ne ptr %62, null
  br i1 %63, label %75, label %64

64:                                               ; preds = %61
  br label %65

65:                                               ; preds = %64
  br i1 true, label %66, label %68

66:                                               ; preds = %65
  %67 = call zeroext i1 @errstart_cold(i32 noundef 21, ptr noundef null) #9
  br i1 %67, label %70, label %72

68:                                               ; preds = %65
  %69 = call zeroext i1 @errstart(i32 noundef 21, ptr noundef null)
  br i1 %69, label %70, label %72

70:                                               ; preds = %68, %66
  %71 = call i32 (ptr, ...) @errmsg_internal(ptr noundef @.str.17)
  call void @errfinish(ptr noundef @.str.1, i32 noundef 652, ptr noundef @__func__.DecodingContextFindStartpoint)
  br label %72

72:                                               ; preds = %70, %68, %66
  unreachable

73:                                               ; No predecessors!
  br label %74

74:                                               ; preds = %73
  br label %75

75:                                               ; preds = %74, %61
  %76 = load ptr, ptr %2, align 8
  %77 = load ptr, ptr %2, align 8
  %78 = getelementptr inbounds nuw %struct.LogicalDecodingContext, ptr %77, i32 0, i32 2
  %79 = load ptr, ptr %78, align 8
  call void @LogicalDecodingProcessRecord(ptr noundef %76, ptr noundef %79)
  %80 = load ptr, ptr %2, align 8
  %81 = call zeroext i1 @DecodingContextReady(ptr noundef %80)
  br i1 %81, label %82, label %83

82:                                               ; preds = %75
  store i32 6, ptr %7, align 4
  br label %95

83:                                               ; preds = %75
  br label %84

84:                                               ; preds = %83
  %85 = load volatile i32, ptr @InterruptPending, align 4
  %86 = icmp ne i32 %85, 0
  %87 = zext i1 %86 to i32
  %88 = sext i32 %87 to i64
  %89 = call i64 @llvm.expect.i64(i64 %88, i64 0)
  %90 = icmp ne i64 %89, 0
  br i1 %90, label %91, label %92

91:                                               ; preds = %84
  call void @ProcessInterrupts()
  br label %92

92:                                               ; preds = %91, %84
  br label %93

93:                                               ; preds = %92
  br label %94

94:                                               ; preds = %93
  store i32 0, ptr %7, align 4
  br label %95

95:                                               ; preds = %94, %82
  call void @llvm.lifetime.end.p0(i64 8, ptr %6) #10
  call void @llvm.lifetime.end.p0(i64 8, ptr %5) #10
  %96 = load i32, ptr %7, align 4
  switch i32 %96, label %137 [
    i32 0, label %97
    i32 6, label %98
  ]

97:                                               ; preds = %95
  br label %42

98:                                               ; preds = %95
  %99 = load ptr, ptr %3, align 8
  %100 = getelementptr inbounds nuw %struct.ReplicationSlot, ptr %99, i32 0, i32 0
  %101 = call i32 @tas(ptr noundef %100)
  %102 = icmp ne i32 %101, 0
  br i1 %102, label %103, label %107

103:                                              ; preds = %98
  %104 = load ptr, ptr %3, align 8
  %105 = getelementptr inbounds nuw %struct.ReplicationSlot, ptr %104, i32 0, i32 0
  %106 = call i32 @s_lock(ptr noundef %105, ptr noundef @.str.1, i32 noundef 663, ptr noundef @__func__.DecodingContextFindStartpoint)
  br label %108

107:                                              ; preds = %98
  br label %108

108:                                              ; preds = %107, %103
  %109 = load ptr, ptr %2, align 8
  %110 = getelementptr inbounds nuw %struct.LogicalDecodingContext, ptr %109, i32 0, i32 2
  %111 = load ptr, ptr %110, align 8
  %112 = getelementptr inbounds nuw %struct.XLogReaderState, ptr %111, i32 0, i32 4
  %113 = load i64, ptr %112, align 8
  %114 = load ptr, ptr %3, align 8
  %115 = getelementptr inbounds nuw %struct.ReplicationSlot, ptr %114, i32 0, i32 7
  %116 = getelementptr inbounds nuw %struct.ReplicationSlotPersistentData, ptr %115, i32 0, i32 7
  store i64 %113, ptr %116, align 8
  %117 = load ptr, ptr %3, align 8
  %118 = getelementptr inbounds nuw %struct.ReplicationSlot, ptr %117, i32 0, i32 7
  %119 = getelementptr inbounds nuw %struct.ReplicationSlotPersistentData, ptr %118, i32 0, i32 9
  %120 = load i8, ptr %119, align 8, !range !6, !noundef !7
  %121 = trunc i8 %120 to i1
  br i1 %121, label %122, label %131

122:                                              ; preds = %108
  %123 = load ptr, ptr %2, align 8
  %124 = getelementptr inbounds nuw %struct.LogicalDecodingContext, ptr %123, i32 0, i32 2
  %125 = load ptr, ptr %124, align 8
  %126 = getelementptr inbounds nuw %struct.XLogReaderState, ptr %125, i32 0, i32 4
  %127 = load i64, ptr %126, align 8
  %128 = load ptr, ptr %3, align 8
  %129 = getelementptr inbounds nuw %struct.ReplicationSlot, ptr %128, i32 0, i32 7
  %130 = getelementptr inbounds nuw %struct.ReplicationSlotPersistentData, ptr %129, i32 0, i32 8
  store i64 %127, ptr %130, align 8
  br label %131

131:                                              ; preds = %122, %108
  br label %132

132:                                              ; preds = %131
  call void asm sideeffect "", "~{memory},~{dirflag},~{fpsr},~{flags}"() #10, !srcloc !11
  %133 = load ptr, ptr %3, align 8
  %134 = getelementptr inbounds nuw %struct.ReplicationSlot, ptr %133, i32 0, i32 0
  store i8 0, ptr %134, align 8
  br label %135

135:                                              ; preds = %132
  br label %136

136:                                              ; preds = %135
  call void @llvm.lifetime.end.p0(i64 8, ptr %3) #10
  ret void

137:                                              ; preds = %95
  unreachable
}