; Function Attrs: nounwind uwtable
define dso_local void @DecodingContextFindStartpoint(ptr noundef %0) local_unnamed_addr #0 {
  %2 = alloca ptr, align 8
  %3 = getelementptr inbounds nuw i8, ptr %0, i64 8
  %4 = load ptr, ptr %3, align 8
  %5 = getelementptr inbounds nuw i8, ptr %0, i64 16
  %6 = load ptr, ptr %5, align 8
  %7 = getelementptr inbounds nuw i8, ptr %4, i64 104
  %8 = load i64, ptr %7, align 8
  tail call void @XLogBeginRead(ptr noundef %6, i64 noundef %8) #10
  %9 = tail call zeroext i1 @errstart(i32 noundef 14, ptr noundef null) #10
  br i1 %9, label %10, label %16

10:                                               ; preds = %1
  %11 = load i64, ptr %7, align 8
  %12 = lshr i64 %11, 32
  %13 = trunc nuw i64 %12 to i32
  %14 = trunc i64 %11 to i32
  %15 = tail call i32 (ptr, ...) @errmsg_internal(ptr noundef nonnull @.str.15, i32 noundef %13, i32 noundef %14) #10
  tail call void @errfinish(ptr noundef nonnull @.str.1, i32 noundef 639, ptr noundef nonnull @__func__.DecodingContextFindStartpoint) #10
  br label %16

16:                                               ; preds = %10, %1
  call void @llvm.lifetime.start.p0(i64 8, ptr nonnull %2) #10
  store ptr null, ptr %2, align 8
  %17 = load ptr, ptr %5, align 8
  %18 = call ptr @XLogReadRecord(ptr noundef %17, ptr noundef nonnull %2) #10
  %19 = load ptr, ptr %2, align 8
  %.not23 = icmp eq ptr %19, null
  br i1 %.not23, label %.lr.ph, label %._crit_edge

.lr.ph:                                           ; preds = %16
  %20 = getelementptr inbounds nuw i8, ptr %0, i64 32
  br label %24

._crit_edge:                                      ; preds = %37, %16
  %21 = call zeroext i1 @errstart_cold(i32 noundef 21, ptr noundef null) #11
  call void @llvm.assume(i1 %21)
  %22 = load ptr, ptr %2, align 8
  %23 = call i32 (ptr, ...) @errmsg_internal(ptr noundef nonnull @.str.16, ptr noundef %22) #10
  call void @errfinish(ptr noundef nonnull @.str.1, i32 noundef 650, ptr noundef nonnull @__func__.DecodingContextFindStartpoint) #10
  unreachable

24:                                               ; preds = %.lr.ph, %37
  %25 = phi ptr [ %18, %.lr.ph ], [ %39, %37 ]
  %.not18 = icmp eq ptr %25, null
  br i1 %.not18, label %26, label %29

26:                                               ; preds = %24
  %27 = call zeroext i1 @errstart_cold(i32 noundef 21, ptr noundef null) #11
  call void @llvm.assume(i1 %27)
  %28 = call i32 (ptr, ...) @errmsg_internal(ptr noundef nonnull @.str.17) #10
  call void @errfinish(ptr noundef nonnull @.str.1, i32 noundef 652, ptr noundef nonnull @__func__.DecodingContextFindStartpoint) #10
  unreachable

29:                                               ; preds = %24
  %30 = load ptr, ptr %5, align 8
  call void @LogicalDecodingProcessRecord(ptr noundef nonnull %0, ptr noundef %30) #10
  %31 = load ptr, ptr %20, align 8
  %32 = call i32 @SnapBuildCurrentState(ptr noundef %31) #10
  %33 = icmp eq i32 %32, 2
  br i1 %33, label %41, label %34

34:                                               ; preds = %29
  %35 = load volatile i32, ptr @InterruptPending, align 4
  %.not19 = icmp eq i32 %35, 0
  br i1 %.not19, label %37, label %36, !prof !11

36:                                               ; preds = %34
  call void @ProcessInterrupts() #10
  br label %37

37:                                               ; preds = %34, %36
  call void @llvm.lifetime.end.p0(i64 8, ptr nonnull %2) #10
  call void @llvm.lifetime.start.p0(i64 8, ptr nonnull %2) #10
  store ptr null, ptr %2, align 8
  %38 = load ptr, ptr %5, align 8
  %39 = call ptr @XLogReadRecord(ptr noundef %38, ptr noundef nonnull %2) #10
  %40 = load ptr, ptr %2, align 8
  %.not = icmp eq ptr %40, null
  br i1 %.not, label %24, label %._crit_edge

41:                                               ; preds = %29
  call void @llvm.lifetime.end.p0(i64 8, ptr nonnull %2) #10
  %42 = call i8 asm sideeffect "\09lock\09\09\09\0A\09xchgb\09$0,$1\09\0A", "=q,=*m,0,*m,~{memory},~{cc},~{dirflag},~{fpsr},~{flags}"(ptr elementtype(i8) %4, i8 1, ptr elementtype(i8) %4) #10, !srcloc !4
  %.not20 = icmp eq i8 %42, 0
  br i1 %.not20, label %45, label %43

43:                                               ; preds = %41
  %44 = call i32 @s_lock(ptr noundef %4, ptr noundef nonnull @.str.1, i32 noundef 663, ptr noundef nonnull @__func__.DecodingContextFindStartpoint) #10
  br label %45

45:                                               ; preds = %41, %43
  %46 = load ptr, ptr %5, align 8
  %47 = getelementptr inbounds nuw i8, ptr %46, i64 48
  %48 = load i64, ptr %47, align 8
  %49 = getelementptr inbounds nuw i8, ptr %4, i64 120
  store i64 %48, ptr %49, align 8
  %50 = getelementptr inbounds nuw i8, ptr %4, i64 136
  %51 = load i8, ptr %50, align 8, !range !8, !noundef !9
  %52 = trunc nuw i8 %51 to i1
  br i1 %52, label %53, label %58

53:                                               ; preds = %45
  %54 = load ptr, ptr %5, align 8
  %55 = getelementptr inbounds nuw i8, ptr %54, i64 48
  %56 = load i64, ptr %55, align 8
  %57 = getelementptr inbounds nuw i8, ptr %4, i64 128
  store i64 %56, ptr %57, align 8
  br label %58

58:                                               ; preds = %45, %53
  call void asm sideeffect "", "~{memory},~{dirflag},~{fpsr},~{flags}"() #10, !srcloc !12
  store i8 0, ptr %4, align 8
  ret void
}